target datalayout = "e-m:e-p270:32:32-p271:32:32-p272:64:64-i64:64-i128:128-f80:128-n8:16:32:64-S128"
target triple = "x86_64-pc-linux-gnu"

%class.Register = type { i32 }
%class.XMMRegister = type { i32 }

; Function Attrs: mustprogress nounwind uwtable
define hidden void @_ZN17C2_MacroAssembler36vector_count_leading_zeros_short_avxE11XMMRegisterS0_S0_S0_S0_8Registeri(ptr noundef nonnull align 8 dereferenceable(40) %0, i32 %1, i32 %2, i32 %3, i32 %4, i32 %5, i32 %6, i32 noundef %7) #1 align 2 {
  %9 = alloca %class.XMMRegister, align 4
  %10 = alloca %class.XMMRegister, align 4
  %11 = alloca %class.XMMRegister, align 4
  %12 = alloca %class.XMMRegister, align 4
  %13 = alloca %class.XMMRegister, align 4
  %14 = alloca %class.Register, align 4
  %15 = alloca ptr, align 8
  %16 = alloca i32, align 4
  %17 = alloca %class.XMMRegister, align 4
  %18 = alloca %class.XMMRegister, align 4
  %19 = alloca %class.XMMRegister, align 4
  %20 = alloca %class.XMMRegister, align 4
  %21 = alloca %class.XMMRegister, align 4
  %22 = alloca %class.Register, align 4
  %23 = alloca %class.XMMRegister, align 4
  %24 = alloca %class.XMMRegister, align 4
  %25 = alloca %class.XMMRegister, align 4
  %26 = alloca %class.XMMRegister, align 4
  %27 = alloca %class.XMMRegister, align 4
  %28 = alloca %class.XMMRegister, align 4
  %29 = alloca %class.XMMRegister, align 4
  %30 = alloca %class.XMMRegister, align 4
  %31 = alloca %class.XMMRegister, align 4
  %32 = alloca %class.XMMRegister, align 4
  %33 = alloca %class.XMMRegister, align 4
  %34 = alloca %class.XMMRegister, align 4
  %35 = alloca %class.XMMRegister, align 4
  %36 = alloca %class.XMMRegister, align 4
  %37 = alloca %class.XMMRegister, align 4
  %38 = alloca %class.XMMRegister, align 4
  %39 = getelementptr inbounds %class.XMMRegister, ptr %9, i32 0, i32 0
  store i32 %1, ptr %39, align 4
  %40 = getelementptr inbounds %class.XMMRegister, ptr %10, i32 0, i32 0
  store i32 %2, ptr %40, align 4
  %41 = getelementptr inbounds %class.XMMRegister, ptr %11, i32 0, i32 0
  store i32 %3, ptr %41, align 4
  %42 = getelementptr inbounds %class.XMMRegister, ptr %12, i32 0, i32 0
  store i32 %4, ptr %42, align 4
  %43 = getelementptr inbounds %class.XMMRegister, ptr %13, i32 0, i32 0
  store i32 %5, ptr %43, align 4
  %44 = getelementptr inbounds %class.Register, ptr %14, i32 0, i32 0
  store i32 %6, ptr %44, align 4
  store ptr %0, ptr %15, align 8
  store i32 %7, ptr %16, align 4
  %45 = load ptr, ptr %15, align 8
  call void @llvm.memcpy.p0.p0.i64(ptr align 4 %17, ptr align 4 %9, i64 4, i1 false)
  call void @llvm.memcpy.p0.p0.i64(ptr align 4 %18, ptr align 4 %10, i64 4, i1 false)
  call void @llvm.memcpy.p0.p0.i64(ptr align 4 %19, ptr align 4 %11, i64 4, i1 false)
  call void @llvm.memcpy.p0.p0.i64(ptr align 4 %20, ptr align 4 %12, i64 4, i1 false)
  call void @llvm.memcpy.p0.p0.i64(ptr align 4 %21, ptr align 4 %13, i64 4, i1 false)
  call void @llvm.memcpy.p0.p0.i64(ptr align 4 %22, ptr align 4 %14, i64 4, i1 false)
  %46 = load i32, ptr %16, align 4
  %47 = getelementptr inbounds %class.XMMRegister, ptr %17, i32 0, i32 0
  %48 = load i32, ptr %47, align 4
  %49 = getelementptr inbounds %class.XMMRegister, ptr %18, i32 0, i32 0
  %50 = load i32, ptr %49, align 4
  %51 = getelementptr inbounds %class.XMMRegister, ptr %19, i32 0, i32 0
  %52 = load i32, ptr %51, align 4
  %53 = getelementptr inbounds %class.XMMRegister, ptr %20, i32 0, i32 0
  %54 = load i32, ptr %53, align 4
  %55 = getelementptr inbounds %class.XMMRegister, ptr %21, i32 0, i32 0
  %56 = load i32, ptr %55, align 4
  %57 = getelementptr inbounds %class.Register, ptr %22, i32 0, i32 0
  %58 = load i32, ptr %57, align 4
  call void @_ZN17C2_MacroAssembler35vector_count_leading_zeros_byte_avxE11XMMRegisterS0_S0_S0_S0_8Registeri(ptr noundef nonnull align 8 dereferenceable(40) %45, i32 %48, i32 %50, i32 %52, i32 %54, i32 %56, i32 %58, i32 noundef %46)
  call void @llvm.memcpy.p0.p0.i64(ptr align 4 %23, ptr align 4 %13, i64 4, i1 false)
  call void @llvm.memcpy.p0.p0.i64(ptr align 4 %24, ptr align 4 %10, i64 4, i1 false)
  %59 = load i32, ptr %16, align 4
  %60 = getelementptr inbounds %class.XMMRegister, ptr %23, i32 0, i32 0
  %61 = load i32, ptr %60, align 4
  %62 = getelementptr inbounds %class.XMMRegister, ptr %24, i32 0, i32 0
  %63 = load i32, ptr %62, align 4
  call void @_ZN14MacroAssembler6vpsrlwE11XMMRegisterS0_ii(ptr noundef nonnull align 8 dereferenceable(40) %45, i32 %61, i32 %63, i32 noundef 8, i32 noundef %59)
  call void @llvm.memcpy.p0.p0.i64(ptr align 4 %25, ptr align 4 %13, i64 4, i1 false)
  call void @llvm.memcpy.p0.p0.i64(ptr align 4 %26, ptr align 4 %11, i64 4, i1 false)
  call void @llvm.memcpy.p0.p0.i64(ptr align 4 %27, ptr align 4 %13, i64 4, i1 false)
  %64 = load i32, ptr %16, align 4
  %65 = getelementptr inbounds %class.XMMRegister, ptr %25, i32 0, i32 0
  %66 = load i32, ptr %65, align 4
  %67 = getelementptr inbounds %class.XMMRegister, ptr %26, i32 0, i32 0
  %68 = load i32, ptr %67, align 4
  %69 = getelementptr inbounds %class.XMMRegister, ptr %27, i32 0, i32 0
  %70 = load i32, ptr %69, align 4
  call void @_ZN14MacroAssembler8vpcmpeqwE11XMMRegisterS0_S0_i(ptr noundef nonnull align 8 dereferenceable(40) %45, i32 %66, i32 %68, i32 %70, i32 noundef %64)
  call void @llvm.memcpy.p0.p0.i64(ptr align 4 %28, ptr align 4 %12, i64 4, i1 false)
  call void @llvm.memcpy.p0.p0.i64(ptr align 4 %29, ptr align 4 %9, i64 4, i1 false)
  %71 = load i32, ptr %16, align 4
  %72 = getelementptr inbounds %class.XMMRegister, ptr %28, i32 0, i32 0
  %73 = load i32, ptr %72, align 4
  %74 = getelementptr inbounds %class.XMMRegister, ptr %29, i32 0, i32 0
  %75 = load i32, ptr %74, align 4
  call void @_ZN14MacroAssembler6vpsllwE11XMMRegisterS0_ii(ptr noundef nonnull align 8 dereferenceable(40) %45, i32 %73, i32 %75, i32 noundef 8, i32 noundef %71)
  call void @llvm.memcpy.p0.p0.i64(ptr align 4 %30, ptr align 4 %12, i64 4, i1 false)
  call void @llvm.memcpy.p0.p0.i64(ptr align 4 %31, ptr align 4 %12, i64 4, i1 false)
  call void @llvm.memcpy.p0.p0.i64(ptr align 4 %32, ptr align 4 %9, i64 4, i1 false)
  %76 = load i32, ptr %16, align 4
  %77 = getelementptr inbounds %class.XMMRegister, ptr %30, i32 0, i32 0
  %78 = load i32, ptr %77, align 4
  %79 = getelementptr inbounds %class.XMMRegister, ptr %31, i32 0, i32 0
  %80 = load i32, ptr %79, align 4
  %81 = getelementptr inbounds %class.XMMRegister, ptr %32, i32 0, i32 0
  %82 = load i32, ptr %81, align 4
  call void @_ZN14MacroAssembler6vpaddwE11XMMRegisterS0_S0_i(ptr noundef nonnull align 8 dereferenceable(40) %45, i32 %78, i32 %80, i32 %82, i32 noundef %76)
  call void @llvm.memcpy.p0.p0.i64(ptr align 4 %33, ptr align 4 %9, i64 4, i1 false)
  call void @llvm.memcpy.p0.p0.i64(ptr align 4 %34, ptr align 4 %9, i64 4, i1 false)
  call void @llvm.memcpy.p0.p0.i64(ptr align 4 %35, ptr align 4 %12, i64 4, i1 false)
  call void @llvm.memcpy.p0.p0.i64(ptr align 4 %36, ptr align 4 %13, i64 4, i1 false)
  %83 = load i32, ptr %16, align 4
  %84 = getelementptr inbounds %class.XMMRegister, ptr %33, i32 0, i32 0
  %85 = load i32, ptr %84, align 4
  %86 = getelementptr inbounds %class.XMMRegister, ptr %34, i32 0, i32 0
  %87 = load i32, ptr %86, align 4
  %88 = getelementptr inbounds %class.XMMRegister, ptr %35, i32 0, i32 0
  %89 = load i32, ptr %88, align 4
  %90 = getelementptr inbounds %class.XMMRegister, ptr %36, i32 0, i32 0
  %91 = load i32, ptr %90, align 4
  call void @_ZN9Assembler9vpblendvbE11XMMRegisterS0_S0_S0_i(ptr noundef nonnull align 8 dereferenceable(40) %45, i32 %85, i32 %87, i32 %89, i32 %91, i32 noundef %83)
  call void @llvm.memcpy.p0.p0.i64(ptr align 4 %37, ptr align 4 %9, i64 4, i1 false)
  call void @llvm.memcpy.p0.p0.i64(ptr align 4 %38, ptr align 4 %9, i64 4, i1 false)
  %92 = load i32, ptr %16, align 4
  %93 = getelementptr inbounds %class.XMMRegister, ptr %37, i32 0, i32 0
  %94 = load i32, ptr %93, align 4
  %95 = getelementptr inbounds %class.XMMRegister, ptr %38, i32 0, i32 0
  %96 = load i32, ptr %95, align 4
  call void @_ZN14MacroAssembler6vpsrlwE11XMMRegisterS0_ii(ptr noundef nonnull align 8 dereferenceable(40) %45, i32 %94, i32 %96, i32 noundef 8, i32 noundef %92)
  ret void
}