; Function Attrs: mustprogress nounwind uwtable
define hidden void @_ZN17C2_MacroAssembler36vector_count_leading_zeros_short_avxE11XMMRegisterS0_S0_S0_S0_8Registeri(ptr noundef nonnull align 8 dereferenceable(40) %0, i32 %1, i32 %2, i32 %3, i32 %4, i32 %5, i32 %6, i32 noundef %7) local_unnamed_addr #0 align 2 {
  tail call void @_ZN17C2_MacroAssembler35vector_count_leading_zeros_byte_avxE11XMMRegisterS0_S0_S0_S0_8Registeri(ptr noundef nonnull align 8 dereferenceable(40) %0, i32 %1, i32 %2, i32 %3, i32 %4, i32 %5, i32 %6, i32 noundef %7)
  tail call void @_ZN14MacroAssembler6vpsrlwE11XMMRegisterS0_ii(ptr noundef nonnull align 8 dereferenceable(40) %0, i32 %5, i32 %2, i32 noundef 8, i32 noundef %7) #11
  tail call void @_ZN14MacroAssembler8vpcmpeqwE11XMMRegisterS0_S0_i(ptr noundef nonnull align 8 dereferenceable(40) %0, i32 %5, i32 %3, i32 %5, i32 noundef %7) #11
  tail call void @_ZN14MacroAssembler6vpsllwE11XMMRegisterS0_ii(ptr noundef nonnull align 8 dereferenceable(40) %0, i32 %4, i32 %1, i32 noundef 8, i32 noundef %7) #11
  tail call void @_ZN14MacroAssembler6vpaddwE11XMMRegisterS0_S0_i(ptr noundef nonnull align 8 dereferenceable(40) %0, i32 %4, i32 %4, i32 %1, i32 noundef %7) #11
  tail call void @_ZN9Assembler9vpblendvbE11XMMRegisterS0_S0_S0_i(ptr noundef nonnull align 8 dereferenceable(40) %0, i32 %1, i32 %1, i32 %4, i32 %5, i32 noundef %7) #11
  tail call void @_ZN14MacroAssembler6vpsrlwE11XMMRegisterS0_ii(ptr noundef nonnull align 8 dereferenceable(40) %0, i32 %1, i32 %1, i32 noundef 8, i32 noundef %7) #11
  ret void
}